target datalayout = "e-m:e-p270:32:32-p271:32:32-p272:64:64-i64:64-i128:128-f80:128-n8:16:32:64-S128"
target triple = "x86_64-pc-linux-gnu"

%struct.VVCTask = type { %union.anon.2, i32, i32, i32, i32, ptr, %struct.ProgressListener, [2 x [29 x %struct.ProgressListener]], ptr, ptr, i32, [10 x i8], i8 }
%union.anon.2 = type { %struct.FFTask }
%struct.FFTask = type { ptr, i32 }
%struct.ProgressListener = type { %struct.VVCProgressListener, ptr, ptr }
%struct.VVCProgressListener = type { i32, i32, ptr, ptr }
%struct.VVCFrameContext = type { ptr, [17 x %struct.VVCFrame], ptr, ptr, %struct.VVCFrameParamSets, ptr, i32, i32, ptr, %struct.VVCDSPContext, %struct.VideoDSPContext, ptr, i64, ptr, ptr, ptr, ptr, %struct.anon }
%struct.VVCFrame = type { ptr, ptr, ptr, ptr, ptr, ptr, i32, i32, i32, %struct.VVCWindow, i32, i32, ptr, ptr, i16, i8, ptr }
%struct.VVCWindow = type { i16, i16, i16, i16 }
%struct.VVCFrameParamSets = type { ptr, ptr, %struct.VVCPH, [8 x ptr], %struct.VVCLMCS, ptr }
%struct.VVCPH = type { ptr, ptr, i32, i32, i8, [3 x i16], i8, [3 x i16], %struct.PredWeightTable }
%struct.PredWeightTable = type { [2 x i8], [2 x i8], [2 x [2 x [15 x i8]]], [2 x [3 x [15 x i16]]], [2 x [3 x [15 x i16]]] }
%struct.VVCLMCS = type { i8, i8, %union.anon, %union.anon, [17 x i16], [16 x i16] }
%union.anon = type { [4096 x i16] }
%struct.VVCDSPContext = type { %struct.VVCInterDSPContext, %struct.VVCIntraDSPContext, %struct.VVCItxDSPContext, %struct.VVCLMCSDSPContext, %struct.VVCLFDSPContext, %struct.VVCSAODSPContext, %struct.VVCALFDSPContext }
%struct.VVCInterDSPContext = type { [2 x [7 x [2 x [2 x ptr]]]], [2 x [7 x [2 x [2 x ptr]]]], [2 x [7 x [2 x [2 x ptr]]]], [2 x [7 x ptr]], [2 x [7 x ptr]], [2 x [7 x ptr]], ptr, ptr, ptr, ptr, ptr, ptr, ptr, ptr, ptr, ptr, ptr, [2 x [2 x ptr]] }
%struct.VVCIntraDSPContext = type { ptr, ptr, ptr, ptr, ptr, ptr, ptr, ptr, ptr, ptr }
%struct.VVCItxDSPContext = type { ptr, ptr, [3 x [6 x ptr]], ptr, ptr }
%struct.VVCLMCSDSPContext = type { ptr }
%struct.VVCLFDSPContext = type { [2 x ptr], [2 x ptr], [2 x ptr] }
%struct.VVCSAODSPContext = type { [9 x ptr], [9 x ptr], [2 x ptr] }
%struct.VVCALFDSPContext = type { [2 x ptr], ptr, ptr, ptr }
%struct.VideoDSPContext = type { ptr, ptr }
%struct.anon = type { ptr, ptr, ptr, ptr, [2 x ptr], [2 x ptr], [2 x ptr], [2 x ptr], [2 x ptr], [3 x ptr], ptr, ptr, [2 x ptr], ptr, ptr, [2 x ptr], ptr, ptr, ptr, [2 x ptr], ptr, [3 x ptr], ptr, [2 x ptr], [2 x ptr], [2 x ptr], [2 x [3 x ptr]], [2 x ptr], [2 x ptr], [3 x ptr], [3 x ptr], [3 x [2 x ptr]], [3 x [2 x ptr]], ptr, ptr, ptr, [3 x ptr], %struct.anon.0 }
%struct.anon.0 = type { i32, i32, i32, i32, i32, i32, i32, i32, i32, i32, i32, i32 }
%struct.VVCFrameThread = type { i32, ptr, ptr, i32, i32, i32, i32, i32, i32, [2 x i32], %union.pthread_mutex_t, %union.pthread_cond_t }
%union.pthread_mutex_t = type { %struct.__pthread_mutex_s }
%struct.__pthread_mutex_s = type { i32, i32, i32, i32, i32, i16, i16, %struct.__pthread_internal_list }
%struct.__pthread_internal_list = type { ptr, ptr }
%union.pthread_cond_t = type { %struct.__pthread_cond_s }
%struct.__pthread_cond_s = type { %union.__atomic_wide_counter, %union.__atomic_wide_counter, [2 x i32], [2 x i32], i32, i32, [2 x i32] }
%union.__atomic_wide_counter = type { i64 }
%struct.SliceContext = type { i32, %struct.VVCSH, ptr, i32, ptr, ptr }
%struct.VVCSH = type { ptr, i32, ptr, %struct.PredWeightTable, [2 x i8], i8, %struct.DBParams, [2 x i8], [2 x i8], [2 x i8], [2 x i8], i8, i8, [4050 x i32] }
%struct.DBParams = type { [3 x i8], [3 x i8] }
%struct.EntryPoint = type { i8, [3 x i32], [3 x %struct.Palette], [378 x %struct.VVCCabacState], %struct.CABACContext, i32, i32, i8, [7 x i8], [5 x %struct.MvField], i32, [4 x i8], [5 x %struct.MvField], i32 }
%struct.Palette = type { i8, [63 x i16] }
%struct.VVCCabacState = type { [2 x i16], [2 x i8] }
%struct.CABACContext = type { i32, i32, ptr, ptr, ptr }
%struct.MvField = type { [2 x %struct.Mv], [2 x i8], i8, i8, i8, i8 }
%struct.Mv = type { i32, i32 }
%struct.VVCContext = type { ptr, ptr, %struct.CodedBitstreamFragment, %struct.VVCParamSets, i32, i32, i32, i32, i32, i32, i32, i16, i16, ptr, ptr, i32, i64, i32 }
%struct.CodedBitstreamFragment = type { ptr, i64, i64, ptr, i32, i32, ptr }
%struct.VVCParamSets = type { [16 x ptr], [64 x ptr], [8 x ptr], [4 x ptr], [8 x ptr], i16 }

@.str = private unnamed_addr constant [49 x i8] c"frame %5d, CTU(%d, %d) not belong to any slice\0D\0A\00", align 1

; Function Attrs: nounwind uwtable
define internal i32 @task_init_parse(ptr noundef %0, ptr noundef %1, ptr noundef %2, i32 noundef %3) #0 {
  %5 = alloca i32, align 4
  %6 = alloca ptr, align 8
  %7 = alloca ptr, align 8
  %8 = alloca ptr, align 8
  %9 = alloca i32, align 4
  store ptr %0, ptr %6, align 8, !tbaa !19
  store ptr %1, ptr %7, align 8, !tbaa !116
  store ptr %2, ptr %8, align 8, !tbaa !124
  store i32 %3, ptr %9, align 4, !tbaa !9
  %10 = load ptr, ptr %6, align 8, !tbaa !19
  %11 = getelementptr inbounds nuw %struct.VVCTask, ptr %10, i32 0, i32 8
  %12 = load ptr, ptr %11, align 8, !tbaa !133
  %13 = icmp ne ptr %12, null
  br i1 %13, label %14, label %15

14:                                               ; preds = %4
  store i32 -1094995529, ptr %5, align 4
  br label %25

15:                                               ; preds = %4
  %16 = load ptr, ptr %7, align 8, !tbaa !116
  %17 = load ptr, ptr %6, align 8, !tbaa !19
  %18 = getelementptr inbounds nuw %struct.VVCTask, ptr %17, i32 0, i32 8
  store ptr %16, ptr %18, align 8, !tbaa !133
  %19 = load ptr, ptr %8, align 8, !tbaa !124
  %20 = load ptr, ptr %6, align 8, !tbaa !19
  %21 = getelementptr inbounds nuw %struct.VVCTask, ptr %20, i32 0, i32 9
  store ptr %19, ptr %21, align 8, !tbaa !145
  %22 = load i32, ptr %9, align 4, !tbaa !9
  %23 = load ptr, ptr %6, align 8, !tbaa !19
  %24 = getelementptr inbounds nuw %struct.VVCTask, ptr %23, i32 0, i32 10
  store i32 %22, ptr %24, align 8, !tbaa !146
  store i32 0, ptr %5, align 4
  br label %25

25:                                               ; preds = %15, %14
  %26 = load i32, ptr %5, align 4
  ret i32 %26
}

; Function Attrs: nounwind uwtable
define i32 @ff_vvc_frame_submit(ptr noundef %0, ptr noundef %1) #0 {
  %3 = alloca i32, align 4
  %4 = alloca ptr, align 8
  %5 = alloca ptr, align 8
  %6 = alloca ptr, align 8
  %7 = alloca i32, align 4
  %8 = alloca i32, align 4
  %9 = alloca ptr, align 8
  %10 = alloca i32, align 4
  %11 = alloca ptr, align 8
  %12 = alloca i32, align 4
  %13 = alloca i32, align 4
  %14 = alloca ptr, align 8
  %15 = alloca i32, align 4
  %16 = alloca i32, align 4
  %17 = alloca ptr, align 8
  store ptr %0, ptr %4, align 8, !tbaa !4
  store ptr %1, ptr %5, align 8, !tbaa !82
  call void @llvm.lifetime.start.p0(i64 8, ptr %6) #7
  %18 = load ptr, ptr %5, align 8, !tbaa !82
  %19 = getelementptr inbounds nuw %struct.VVCFrameContext, ptr %18, i32 0, i32 11
  %20 = load ptr, ptr %19, align 8, !tbaa !31
  store ptr %20, ptr %6, align 8, !tbaa !68
  call void @llvm.lifetime.start.p0(i64 4, ptr %7) #7
  store i32 0, ptr %7, align 4, !tbaa !9
  br label %21

21:                                               ; preds = %106, %2
  %22 = load i32, ptr %7, align 4, !tbaa !9
  %23 = load ptr, ptr %5, align 8, !tbaa !82
  %24 = getelementptr inbounds nuw %struct.VVCFrameContext, ptr %23, i32 0, i32 6
  %25 = load i32, ptr %24, align 8, !tbaa !114
  %26 = icmp slt i32 %22, %25
  br i1 %26, label %28, label %27

27:                                               ; preds = %21
  store i32 2, ptr %8, align 4
  br label %109

28:                                               ; preds = %21
  call void @llvm.lifetime.start.p0(i64 8, ptr %9) #7
  %29 = load ptr, ptr %5, align 8, !tbaa !82
  %30 = getelementptr inbounds nuw %struct.VVCFrameContext, ptr %29, i32 0, i32 5
  %31 = load ptr, ptr %30, align 8, !tbaa !115
  %32 = load i32, ptr %7, align 4, !tbaa !9
  %33 = sext i32 %32 to i64
  %34 = getelementptr inbounds ptr, ptr %31, i64 %33
  %35 = load ptr, ptr %34, align 8, !tbaa !116
  store ptr %35, ptr %9, align 8, !tbaa !116
  call void @llvm.lifetime.start.p0(i64 4, ptr %10) #7
  store i32 0, ptr %10, align 4, !tbaa !9
  br label %36

36:                                               ; preds = %97, %28
  %37 = load i32, ptr %10, align 4, !tbaa !9
  %38 = load ptr, ptr %9, align 8, !tbaa !116
  %39 = getelementptr inbounds nuw %struct.SliceContext, ptr %38, i32 0, i32 3
  %40 = load i32, ptr %39, align 8, !tbaa !117
  %41 = icmp slt i32 %37, %40
  br i1 %41, label %43, label %42

42:                                               ; preds = %36
  store i32 5, ptr %8, align 4
  br label %100

43:                                               ; preds = %36
  call void @llvm.lifetime.start.p0(i64 8, ptr %11) #7
  %44 = load ptr, ptr %9, align 8, !tbaa !116
  %45 = getelementptr inbounds nuw %struct.SliceContext, ptr %44, i32 0, i32 2
  %46 = load ptr, ptr %45, align 8, !tbaa !123
  %47 = load i32, ptr %10, align 4, !tbaa !9
  %48 = sext i32 %47 to i64
  %49 = getelementptr inbounds %struct.EntryPoint, ptr %46, i64 %48
  store ptr %49, ptr %11, align 8, !tbaa !124
  call void @llvm.lifetime.start.p0(i64 4, ptr %12) #7
  %50 = load ptr, ptr %11, align 8, !tbaa !124
  %51 = getelementptr inbounds nuw %struct.EntryPoint, ptr %50, i32 0, i32 5
  %52 = load i32, ptr %51, align 8, !tbaa !125
  store i32 %52, ptr %12, align 4, !tbaa !9
  br label %53

53:                                               ; preds = %88, %43
  %54 = load i32, ptr %12, align 4, !tbaa !9
  %55 = load ptr, ptr %11, align 8, !tbaa !124
  %56 = getelementptr inbounds nuw %struct.EntryPoint, ptr %55, i32 0, i32 6
  %57 = load i32, ptr %56, align 4, !tbaa !128
  %58 = icmp slt i32 %54, %57
  br i1 %58, label %60, label %59

59:                                               ; preds = %53
  store i32 8, ptr %8, align 4
  br label %91

60:                                               ; preds = %53
  call void @llvm.lifetime.start.p0(i64 4, ptr %13) #7
  %61 = load ptr, ptr %9, align 8, !tbaa !116
  %62 = getelementptr inbounds nuw %struct.SliceContext, ptr %61, i32 0, i32 1
  %63 = getelementptr inbounds nuw %struct.VVCSH, ptr %62, i32 0, i32 2
  %64 = load ptr, ptr %63, align 8, !tbaa !129
  %65 = load i32, ptr %12, align 4, !tbaa !9
  %66 = sext i32 %65 to i64
  %67 = getelementptr inbounds i32, ptr %64, i64 %66
  %68 = load i32, ptr %67, align 4, !tbaa !9
  store i32 %68, ptr %13, align 4, !tbaa !9
  call void @llvm.lifetime.start.p0(i64 8, ptr %14) #7
  %69 = load ptr, ptr %6, align 8, !tbaa !68
  %70 = getelementptr inbounds nuw %struct.VVCFrameThread, ptr %69, i32 0, i32 2
  %71 = load ptr, ptr %70, align 8, !tbaa !103
  %72 = load i32, ptr %13, align 4, !tbaa !9
  %73 = sext i32 %72 to i64
  %74 = getelementptr inbounds %struct.VVCTask, ptr %71, i64 %73
  store ptr %74, ptr %14, align 8, !tbaa !19
  call void @llvm.lifetime.start.p0(i64 4, ptr %15) #7
  %75 = load ptr, ptr %14, align 8, !tbaa !19
  %76 = load ptr, ptr %9, align 8, !tbaa !116
  %77 = load ptr, ptr %11, align 8, !tbaa !124
  %78 = load i32, ptr %12, align 4, !tbaa !9
  %79 = call i32 @task_init_parse(ptr noundef %75, ptr noundef %76, ptr noundef %77, i32 noundef %78)
  store i32 %79, ptr %15, align 4, !tbaa !9
  %80 = load i32, ptr %15, align 4, !tbaa !9
  %81 = icmp slt i32 %80, 0
  br i1 %81, label %82, label %84

82:                                               ; preds = %60
  %83 = load i32, ptr %15, align 4, !tbaa !9
  store i32 %83, ptr %3, align 4
  store i32 1, ptr %8, align 4
  br label %85

84:                                               ; preds = %60
  store i32 0, ptr %8, align 4
  br label %85

85:                                               ; preds = %84, %82
  call void @llvm.lifetime.end.p0(i64 4, ptr %15) #7
  call void @llvm.lifetime.end.p0(i64 8, ptr %14) #7
  call void @llvm.lifetime.end.p0(i64 4, ptr %13) #7
  %86 = load i32, ptr %8, align 4
  switch i32 %86, label %91 [
    i32 0, label %87
  ]

87:                                               ; preds = %85
  br label %88

88:                                               ; preds = %87
  %89 = load i32, ptr %12, align 4, !tbaa !9
  %90 = add nsw i32 %89, 1
  store i32 %90, ptr %12, align 4, !tbaa !9
  br label %53, !llvm.loop !130

91:                                               ; preds = %85, %59
  call void @llvm.lifetime.end.p0(i64 4, ptr %12) #7
  %92 = load i32, ptr %8, align 4
  switch i32 %92, label %94 [
    i32 8, label %93
  ]

93:                                               ; preds = %91
  store i32 0, ptr %8, align 4
  br label %94

94:                                               ; preds = %93, %91
  call void @llvm.lifetime.end.p0(i64 8, ptr %11) #7
  %95 = load i32, ptr %8, align 4
  switch i32 %95, label %100 [
    i32 0, label %96
  ]

96:                                               ; preds = %94
  br label %97

97:                                               ; preds = %96
  %98 = load i32, ptr %10, align 4, !tbaa !9
  %99 = add nsw i32 %98, 1
  store i32 %99, ptr %10, align 4, !tbaa !9
  br label %36, !llvm.loop !131

100:                                              ; preds = %94, %42
  call void @llvm.lifetime.end.p0(i64 4, ptr %10) #7
  %101 = load i32, ptr %8, align 4
  switch i32 %101, label %103 [
    i32 5, label %102
  ]

102:                                              ; preds = %100
  store i32 0, ptr %8, align 4
  br label %103

103:                                              ; preds = %102, %100
  call void @llvm.lifetime.end.p0(i64 8, ptr %9) #7
  %104 = load i32, ptr %8, align 4
  switch i32 %104, label %109 [
    i32 0, label %105
  ]

105:                                              ; preds = %103
  br label %106

106:                                              ; preds = %105
  %107 = load i32, ptr %7, align 4, !tbaa !9
  %108 = add nsw i32 %107, 1
  store i32 %108, ptr %7, align 4, !tbaa !9
  br label %21, !llvm.loop !132

109:                                              ; preds = %103, %27
  call void @llvm.lifetime.end.p0(i64 4, ptr %7) #7
  %110 = load i32, ptr %8, align 4
  switch i32 %110, label %156 [
    i32 2, label %111
  ]

111:                                              ; preds = %109
  call void @llvm.lifetime.start.p0(i64 4, ptr %16) #7
  store i32 0, ptr %16, align 4, !tbaa !9
  br label %112

112:                                              ; preds = %148, %111
  %113 = load i32, ptr %16, align 4, !tbaa !9
  %114 = load ptr, ptr %6, align 8, !tbaa !68
  %115 = getelementptr inbounds nuw %struct.VVCFrameThread, ptr %114, i32 0, i32 6
  %116 = load i32, ptr %115, align 4, !tbaa !101
  %117 = icmp slt i32 %113, %116
  br i1 %117, label %119, label %118

118:                                              ; preds = %112
  store i32 11, ptr %8, align 4
  br label %151

119:                                              ; preds = %112
  call void @llvm.lifetime.start.p0(i64 8, ptr %17) #7
  %120 = load ptr, ptr %6, align 8, !tbaa !68
  %121 = getelementptr inbounds nuw %struct.VVCFrameThread, ptr %120, i32 0, i32 2
  %122 = load ptr, ptr %121, align 8, !tbaa !103
  %123 = load i32, ptr %16, align 4, !tbaa !9
  %124 = sext i32 %123 to i64
  %125 = getelementptr inbounds %struct.VVCTask, ptr %122, i64 %124
  store ptr %125, ptr %17, align 8, !tbaa !19
  %126 = load ptr, ptr %17, align 8, !tbaa !19
  %127 = getelementptr inbounds nuw %struct.VVCTask, ptr %126, i32 0, i32 8
  %128 = load ptr, ptr %127, align 8, !tbaa !133
  %129 = icmp ne ptr %128, null
  br i1 %129, label %144, label %130

130:                                              ; preds = %119
  %131 = load ptr, ptr %4, align 8, !tbaa !4
  %132 = getelementptr inbounds nuw %struct.VVCContext, ptr %131, i32 0, i32 0
  %133 = load ptr, ptr %132, align 8, !tbaa !134
  %134 = load ptr, ptr %5, align 8, !tbaa !82
  %135 = getelementptr inbounds nuw %struct.VVCFrameContext, ptr %134, i32 0, i32 12
  %136 = load i64, ptr %135, align 8, !tbaa !143
  %137 = trunc i64 %136 to i32
  %138 = load ptr, ptr %17, align 8, !tbaa !19
  %139 = getelementptr inbounds nuw %struct.VVCTask, ptr %138, i32 0, i32 2
  %140 = load i32, ptr %139, align 4, !tbaa !78
  %141 = load ptr, ptr %17, align 8, !tbaa !19
  %142 = getelementptr inbounds nuw %struct.VVCTask, ptr %141, i32 0, i32 3
  %143 = load i32, ptr %142, align 8, !tbaa !79
  call void (ptr, i32, ptr, ...) @av_log(ptr noundef %133, i32 noundef 16, ptr noundef @.str, i32 noundef %137, i32 noundef %140, i32 noundef %143)
  store i32 -1094995529, ptr %3, align 4
  store i32 1, ptr %8, align 4
  br label %145

144:                                              ; preds = %119
  store i32 0, ptr %8, align 4
  br label %145

145:                                              ; preds = %144, %130
  call void @llvm.lifetime.end.p0(i64 8, ptr %17) #7
  %146 = load i32, ptr %8, align 4
  switch i32 %146, label %151 [
    i32 0, label %147
  ]

147:                                              ; preds = %145
  br label %148

148:                                              ; preds = %147
  %149 = load i32, ptr %16, align 4, !tbaa !9
  %150 = add nsw i32 %149, 1
  store i32 %150, ptr %16, align 4, !tbaa !9
  br label %112, !llvm.loop !144

151:                                              ; preds = %145, %118
  call void @llvm.lifetime.end.p0(i64 4, ptr %16) #7
  %152 = load i32, ptr %8, align 4
  switch i32 %152, label %156 [
    i32 11, label %153
  ]

153:                                              ; preds = %151
  %154 = load ptr, ptr %4, align 8, !tbaa !4
  %155 = load ptr, ptr %6, align 8, !tbaa !68
  call void @frame_thread_add_score(ptr noundef %154, ptr noundef %155, i32 noundef 0, i32 noundef 0, i32 noundef 0)
  store i32 0, ptr %3, align 4
  store i32 1, ptr %8, align 4
  br label %156

156:                                              ; preds = %153, %151, %109
  call void @llvm.lifetime.end.p0(i64 8, ptr %6) #7
  %157 = load i32, ptr %3, align 4
  ret i32 %157
}