; Function Attrs: nounwind uwtable
define range(i32 -1094995529, 1) i32 @ff_vvc_frame_submit(ptr noundef readonly captures(address_is_null) %0, ptr noundef readonly captures(none) %1) local_unnamed_addr #0 {
  %3 = getelementptr inbounds nuw i8, ptr %1, i64 21288
  %4 = load ptr, ptr %3, align 8, !tbaa !23
  %5 = getelementptr inbounds nuw i8, ptr %1, i64 18944
  %6 = load i32, ptr %5, align 8, !tbaa !113
  %.not6486 = icmp sgt i32 %6, 0
  br i1 %.not6486, label %.lr.ph89, label %.critedge.preheader

.lr.ph89:                                         ; preds = %2
  %7 = getelementptr inbounds nuw i8, ptr %1, i64 18936
  %8 = load ptr, ptr %7, align 8, !tbaa !114
  %9 = getelementptr inbounds nuw i8, ptr %4, i64 16
  %wide.trip.count103 = zext nneg i32 %6 to i64
  br label %10

10:                                               ; preds = %.lr.ph89, %._crit_edge85
  %indvars.iv100 = phi i64 [ 0, %.lr.ph89 ], [ %indvars.iv.next101, %._crit_edge85 ]
  %11 = getelementptr inbounds nuw ptr, ptr %8, i64 %indvars.iv100
  %12 = load ptr, ptr %11, align 8, !tbaa !115
  %13 = getelementptr inbounds nuw i8, ptr %12, i64 16688
  %14 = load i32, ptr %13, align 8, !tbaa !116
  %15 = icmp sgt i32 %14, 0
  br i1 %15, label %.lr.ph84, label %._crit_edge85

.lr.ph84:                                         ; preds = %10
  %16 = getelementptr inbounds nuw i8, ptr %12, i64 16680
  %17 = load ptr, ptr %16, align 8, !tbaa !122
  %18 = getelementptr inbounds nuw i8, ptr %12, i64 24
  %wide.trip.count98 = zext nneg i32 %14 to i64
  br label %19

19:                                               ; preds = %.lr.ph84, %._crit_edge
  %indvars.iv95 = phi i64 [ 0, %.lr.ph84 ], [ %indvars.iv.next96, %._crit_edge ]
  %20 = getelementptr inbounds nuw %struct.EntryPoint, ptr %17, i64 %indvars.iv95
  %21 = getelementptr inbounds nuw i8, ptr %20, i64 2704
  %22 = load i32, ptr %21, align 8, !tbaa !123
  %23 = getelementptr inbounds nuw i8, ptr %20, i64 2708
  %24 = load i32, ptr %23, align 4, !tbaa !126
  %.not80 = icmp slt i32 %22, %24
  br i1 %.not80, label %.lr.ph, label %._crit_edge

.lr.ph:                                           ; preds = %19
  %25 = load ptr, ptr %18, align 8, !tbaa !127
  %26 = load ptr, ptr %9, align 8, !tbaa !104
  %27 = sext i32 %22 to i64
  %wide.trip.count = sext i32 %24 to i64
  br label %28

28:                                               ; preds = %.lr.ph, %35
  %indvars.iv = phi i64 [ %27, %.lr.ph ], [ %indvars.iv.next, %35 ]
  %29 = getelementptr inbounds i32, ptr %25, i64 %indvars.iv
  %30 = load i32, ptr %29, align 4, !tbaa !128
  %31 = sext i32 %30 to i64
  %32 = getelementptr inbounds %struct.VVCTask, ptr %26, i64 %31
  %33 = getelementptr inbounds nuw i8, ptr %32, i64 2400
  %34 = load ptr, ptr %33, align 8, !tbaa !67
  %.not.i = icmp eq ptr %34, null
  br i1 %.not.i, label %35, label %.thread73

35:                                               ; preds = %28
  store ptr %12, ptr %33, align 8, !tbaa !67
  %36 = getelementptr inbounds nuw i8, ptr %32, i64 2408
  store ptr %20, ptr %36, align 8, !tbaa !129
  %37 = getelementptr inbounds nuw i8, ptr %32, i64 2416
  %38 = trunc nsw i64 %indvars.iv to i32
  store i32 %38, ptr %37, align 8, !tbaa !130
  %indvars.iv.next = add nsw i64 %indvars.iv, 1
  %exitcond.not = icmp eq i64 %indvars.iv.next, %wide.trip.count
  br i1 %exitcond.not, label %._crit_edge, label %28, !llvm.loop !131

._crit_edge:                                      ; preds = %35, %19
  %indvars.iv.next96 = add nuw nsw i64 %indvars.iv95, 1
  %exitcond99.not = icmp eq i64 %indvars.iv.next96, %wide.trip.count98
  br i1 %exitcond99.not, label %._crit_edge85, label %19, !llvm.loop !132

._crit_edge85:                                    ; preds = %._crit_edge, %10
  %indvars.iv.next101 = add nuw nsw i64 %indvars.iv100, 1
  %exitcond104.not = icmp eq i64 %indvars.iv.next101, %wide.trip.count103
  br i1 %exitcond104.not, label %.critedge.preheader, label %10, !llvm.loop !133

.critedge.preheader:                              ; preds = %._crit_edge85, %2
  %39 = getelementptr inbounds nuw i8, ptr %4, i64 36
  %40 = load i32, ptr %39, align 4, !tbaa !102
  %.not6790 = icmp sgt i32 %40, 0
  br i1 %.not6790, label %.lr.ph92, label %.critedge._crit_edge

.lr.ph92:                                         ; preds = %.critedge.preheader
  %41 = getelementptr inbounds nuw i8, ptr %4, i64 16
  %42 = load ptr, ptr %41, align 8, !tbaa !104
  %wide.trip.count108 = zext nneg i32 %40 to i64
  br label %43

.critedge:                                        ; preds = %43
  %indvars.iv.next106 = add nuw nsw i64 %indvars.iv105, 1
  %exitcond109.not = icmp eq i64 %indvars.iv.next106, %wide.trip.count108
  br i1 %exitcond109.not, label %.critedge._crit_edge, label %43, !llvm.loop !134

43:                                               ; preds = %.lr.ph92, %.critedge
  %indvars.iv105 = phi i64 [ 0, %.lr.ph92 ], [ %indvars.iv.next106, %.critedge ]
  %44 = getelementptr inbounds nuw %struct.VVCTask, ptr %42, i64 %indvars.iv105
  %45 = getelementptr inbounds nuw i8, ptr %44, i64 2400
  %46 = load ptr, ptr %45, align 8, !tbaa !67
  %.not66.not = icmp eq ptr %46, null
  br i1 %.not66.not, label %.thread78, label %.critedge

.thread78:                                        ; preds = %43
  %47 = load ptr, ptr %0, align 8, !tbaa !70
  %48 = getelementptr inbounds nuw i8, ptr %1, i64 21296
  %49 = load i64, ptr %48, align 8, !tbaa !80
  %50 = trunc i64 %49 to i32
  %51 = getelementptr inbounds nuw i8, ptr %44, i64 20
  %52 = load i32, ptr %51, align 4, !tbaa !82
  %53 = getelementptr inbounds nuw i8, ptr %44, i64 24
  %54 = load i32, ptr %53, align 8, !tbaa !83
  tail call void (ptr, i32, ptr, ...) @av_log(ptr noundef %47, i32 noundef 16, ptr noundef nonnull @.str, i32 noundef %50, i32 noundef %52, i32 noundef %54) #7
  br label %.thread73

.critedge._crit_edge:                             ; preds = %.critedge, %.critedge.preheader
  tail call fastcc void @frame_thread_add_score(ptr noundef %0, ptr noundef nonnull %4, i32 noundef 0, i32 noundef 0, i32 noundef 0)
  br label %.thread73

.thread73:                                        ; preds = %28, %.thread78, %.critedge._crit_edge
  %.7 = phi i32 [ 0, %.critedge._crit_edge ], [ -1094995529, %.thread78 ], [ -1094995529, %28 ]
  ret i32 %.7
}